target datalayout = "e-m:e-p270:32:32-p271:32:32-p272:64:64-i64:64-i128:128-f80:128-n8:16:32:64-S128"
target triple = "x86_64-pc-linux-gnu"

@.str.10 = private unnamed_addr constant [8 x i8] c"PALETTE\00", align 1

; Function Attrs: nounwind uwtable
define i32 @H5IMunlink_palette(i64 noundef %0, ptr noundef %1, ptr noundef %2) #0 {
  %4 = alloca i32, align 4
  %5 = alloca i64, align 8
  %6 = alloca ptr, align 8
  %7 = alloca ptr, align 8
  %8 = alloca i64, align 8
  %9 = alloca i64, align 8
  %10 = alloca i64, align 8
  %11 = alloca i32, align 4
  %12 = alloca i32, align 4
  %13 = alloca i32, align 4
  %14 = alloca i32, align 4
  store i64 %0, ptr %5, align 8, !tbaa !3
  store ptr %1, ptr %6, align 8, !tbaa !7
  store ptr %2, ptr %7, align 8, !tbaa !7
  call void @llvm.lifetime.start.p0(i64 8, ptr %8) #7
  call void @llvm.lifetime.start.p0(i64 8, ptr %9) #7
  call void @llvm.lifetime.start.p0(i64 8, ptr %10) #7
  call void @llvm.lifetime.start.p0(i64 4, ptr %11) #7
  call void @llvm.lifetime.start.p0(i64 4, ptr %12) #7
  call void @llvm.lifetime.start.p0(i64 4, ptr %13) #7
  %15 = load ptr, ptr %6, align 8, !tbaa !7
  %16 = icmp eq ptr %15, null
  br i1 %16, label %17, label %18

17:                                               ; preds = %3
  store i32 -1, ptr %4, align 4
  store i32 1, ptr %14, align 4
  br label %92

18:                                               ; preds = %3
  %19 = load ptr, ptr %7, align 8, !tbaa !7
  %20 = icmp eq ptr %19, null
  br i1 %20, label %21, label %22

21:                                               ; preds = %18
  store i32 -1, ptr %4, align 4
  store i32 1, ptr %14, align 4
  br label %92

22:                                               ; preds = %18
  %23 = load i64, ptr %5, align 8, !tbaa !3
  %24 = load ptr, ptr %7, align 8, !tbaa !7
  %25 = call i32 @H5LTfind_dataset(i64 noundef %23, ptr noundef %24)
  store i32 %25, ptr %13, align 4, !tbaa !15
  %26 = load i32, ptr %13, align 4, !tbaa !15
  %27 = icmp eq i32 %26, 0
  br i1 %27, label %28, label %29

28:                                               ; preds = %22
  store i32 -1, ptr %4, align 4
  store i32 1, ptr %14, align 4
  br label %92

29:                                               ; preds = %22
  %30 = load i64, ptr %5, align 8, !tbaa !3
  %31 = load ptr, ptr %6, align 8, !tbaa !7
  %32 = call i64 @H5Dopen2(i64 noundef %30, ptr noundef %31, i64 noundef 0)
  store i64 %32, ptr %8, align 8, !tbaa !3
  %33 = icmp slt i64 %32, 0
  br i1 %33, label %34, label %35

34:                                               ; preds = %29
  store i32 -1, ptr %4, align 4
  store i32 1, ptr %14, align 4
  br label %92

35:                                               ; preds = %29
  %36 = load i64, ptr %8, align 8, !tbaa !3
  %37 = call i32 @H5Aexists(i64 noundef %36, ptr noundef @.str.10)
  store i32 %37, ptr %12, align 4, !tbaa !15
  %38 = icmp slt i32 %37, 0
  br i1 %38, label %39, label %40

39:                                               ; preds = %35
  br label %89

40:                                               ; preds = %35
  %41 = load i32, ptr %12, align 4, !tbaa !15
  %42 = icmp eq i32 %41, 0
  br i1 %42, label %43, label %44

43:                                               ; preds = %40
  br label %89

44:                                               ; preds = %40
  %45 = load i32, ptr %12, align 4, !tbaa !15
  %46 = icmp sgt i32 %45, 0
  br i1 %46, label %47, label %82

47:                                               ; preds = %44
  %48 = load i64, ptr %8, align 8, !tbaa !3
  %49 = call i64 @H5Aopen(i64 noundef %48, ptr noundef @.str.10, i64 noundef 0)
  store i64 %49, ptr %10, align 8, !tbaa !3
  %50 = icmp slt i64 %49, 0
  br i1 %50, label %51, label %52

51:                                               ; preds = %47
  br label %89

52:                                               ; preds = %47
  %53 = load i64, ptr %10, align 8, !tbaa !3
  %54 = call i64 @H5Aget_type(i64 noundef %53)
  store i64 %54, ptr %9, align 8, !tbaa !3
  %55 = icmp slt i64 %54, 0
  br i1 %55, label %56, label %57

56:                                               ; preds = %52
  br label %89

57:                                               ; preds = %52
  %58 = load i64, ptr %9, align 8, !tbaa !3
  %59 = call i32 @H5Tget_class(i64 noundef %58)
  store i32 %59, ptr %11, align 4, !tbaa !15
  %60 = icmp slt i32 %59, 0
  br i1 %60, label %61, label %62

61:                                               ; preds = %57
  br label %89

62:                                               ; preds = %57
  %63 = load i32, ptr %11, align 4, !tbaa !15
  %64 = icmp eq i32 %63, 7
  br i1 %64, label %65, label %71

65:                                               ; preds = %62
  %66 = load i64, ptr %8, align 8, !tbaa !3
  %67 = call i32 @H5Adelete(i64 noundef %66, ptr noundef @.str.10)
  %68 = icmp slt i32 %67, 0
  br i1 %68, label %69, label %70

69:                                               ; preds = %65
  br label %89

70:                                               ; preds = %65
  br label %71

71:                                               ; preds = %70, %62
  %72 = load i64, ptr %9, align 8, !tbaa !3
  %73 = call i32 @H5Tclose(i64 noundef %72)
  %74 = icmp slt i32 %73, 0
  br i1 %74, label %75, label %76

75:                                               ; preds = %71
  br label %89

76:                                               ; preds = %71
  %77 = load i64, ptr %10, align 8, !tbaa !3
  %78 = call i32 @H5Aclose(i64 noundef %77)
  %79 = icmp slt i32 %78, 0
  br i1 %79, label %80, label %81

80:                                               ; preds = %76
  br label %89

81:                                               ; preds = %76
  br label %82

82:                                               ; preds = %81, %44
  br label %83

83:                                               ; preds = %82
  %84 = load i64, ptr %8, align 8, !tbaa !3
  %85 = call i32 @H5Dclose(i64 noundef %84)
  %86 = icmp slt i32 %85, 0
  br i1 %86, label %87, label %88

87:                                               ; preds = %83
  store i32 -1, ptr %4, align 4
  store i32 1, ptr %14, align 4
  br label %92

88:                                               ; preds = %83
  store i32 0, ptr %4, align 4
  store i32 1, ptr %14, align 4
  br label %92

89:                                               ; preds = %80, %75, %69, %61, %56, %51, %43, %39
  %90 = load i64, ptr %8, align 8, !tbaa !3
  %91 = call i32 @H5Dclose(i64 noundef %90)
  store i32 -1, ptr %4, align 4
  store i32 1, ptr %14, align 4
  br label %92

92:                                               ; preds = %89, %88, %87, %34, %28, %21, %17
  call void @llvm.lifetime.end.p0(i64 4, ptr %13) #7
  call void @llvm.lifetime.end.p0(i64 4, ptr %12) #7
  call void @llvm.lifetime.end.p0(i64 4, ptr %11) #7
  call void @llvm.lifetime.end.p0(i64 8, ptr %10) #7
  call void @llvm.lifetime.end.p0(i64 8, ptr %9) #7
  call void @llvm.lifetime.end.p0(i64 8, ptr %8) #7
  %93 = load i32, ptr %4, align 4
  ret i32 %93
}