; Function Attrs: nounwind uwtable
define range(i32 -1, 1) i32 @H5IMunlink_palette(i64 noundef %0, ptr noundef %1, ptr noundef %2) local_unnamed_addr #0 {
  %4 = icmp eq ptr %1, null
  %5 = icmp eq ptr %2, null
  %or.cond27 = or i1 %4, %5
  br i1 %or.cond27, label %38, label %6

6:                                                ; preds = %3
  %7 = tail call i32 @H5LTfind_dataset(i64 noundef %0, ptr noundef nonnull %2) #8
  %8 = icmp eq i32 %7, 0
  br i1 %8, label %38, label %9

9:                                                ; preds = %6
  %10 = tail call i64 @H5Dopen2(i64 noundef %0, ptr noundef nonnull %1, i64 noundef 0) #8
  %11 = icmp slt i64 %10, 0
  br i1 %11, label %38, label %12

12:                                               ; preds = %9
  %13 = tail call i32 @H5Aexists(i64 noundef %10, ptr noundef nonnull @.str.10) #8
  %or.cond = icmp slt i32 %13, 1
  br i1 %or.cond, label %36, label %14

14:                                               ; preds = %12
  %15 = tail call i64 @H5Aopen(i64 noundef %10, ptr noundef nonnull @.str.10, i64 noundef 0) #8
  %16 = icmp slt i64 %15, 0
  br i1 %16, label %36, label %17

17:                                               ; preds = %14
  %18 = tail call i64 @H5Aget_type(i64 noundef %15) #8
  %19 = icmp slt i64 %18, 0
  br i1 %19, label %36, label %20

20:                                               ; preds = %17
  %21 = tail call i32 @H5Tget_class(i64 noundef %18) #8
  %22 = icmp slt i32 %21, 0
  br i1 %22, label %36, label %23

23:                                               ; preds = %20
  %24 = icmp eq i32 %21, 7
  br i1 %24, label %25, label %28

25:                                               ; preds = %23
  %26 = tail call i32 @H5Adelete(i64 noundef %10, ptr noundef nonnull @.str.10) #8
  %27 = icmp slt i32 %26, 0
  br i1 %27, label %36, label %28

28:                                               ; preds = %25, %23
  %29 = tail call i32 @H5Tclose(i64 noundef %18) #8
  %30 = icmp slt i32 %29, 0
  br i1 %30, label %36, label %31

31:                                               ; preds = %28
  %32 = tail call i32 @H5Aclose(i64 noundef %15) #8
  %33 = icmp slt i32 %32, 0
  br i1 %33, label %36, label %34

34:                                               ; preds = %31
  %35 = tail call i32 @H5Dclose(i64 noundef %10) #8
  %.lobit = ashr i32 %35, 31
  br label %38

36:                                               ; preds = %31, %28, %25, %20, %17, %14, %12
  %37 = tail call i32 @H5Dclose(i64 noundef %10) #8
  br label %38

38:                                               ; preds = %34, %9, %6, %3, %36
  %.0 = phi i32 [ -1, %36 ], [ -1, %3 ], [ -1, %6 ], [ -1, %9 ], [ %.lobit, %34 ]
  ret i32 %.0
}